target datalayout = "e-m:e-p270:32:32-p271:32:32-p272:64:64-i64:64-i128:128-f80:128-n8:16:32:64-S128"
target triple = "x86_64-pc-linux-gnu"

%struct.cli_all_bc = type { ptr, i32, ptr, %struct.cli_environment, i32 }
%struct.cli_environment = type { i32, i32, i32, i32, i32, i32, i32, [65 x i8], [65 x i8], [65 x i8], [65 x i8], [65 x i8], [65 x i8], [65 x i8], i8, i8, i8, i8, i8, i8, i8, i8, i8 }

@.str.59 = private unnamed_addr constant [33 x i8] c"Bytecode initialized in %s mode\0A\00", align 1
@.str.60 = private unnamed_addr constant [4 x i8] c"JIT\00", align 1
@.str.61 = private unnamed_addr constant [12 x i8] c"interpreter\00", align 1

; Function Attrs: nounwind uwtable
define i32 @cli_bytecode_init(ptr noundef %0) #0 {
  %2 = alloca ptr, align 8
  %3 = alloca i32, align 4
  store ptr %0, ptr %2, align 8
  %4 = load ptr, ptr %2, align 8
  call void @llvm.memset.p0.i64(ptr align 8 %4, i8 0, i64 520, i1 false)
  %5 = load ptr, ptr %2, align 8
  %6 = call i32 @cli_bytecode_init_jit(ptr noundef %5, i32 noundef 0)
  store i32 %6, ptr %3, align 4
  %7 = load ptr, ptr %2, align 8
  %8 = getelementptr inbounds %struct.cli_all_bc, ptr %7, i32 0, i32 2
  %9 = load ptr, ptr %8, align 8
  %10 = icmp ne ptr %9, null
  %11 = select i1 %10, ptr @.str.60, ptr @.str.61
  call void (ptr, ...) @cli_dbgmsg(ptr noundef @.str.59, ptr noundef %11)
  %12 = load ptr, ptr %2, align 8
  %13 = getelementptr inbounds %struct.cli_all_bc, ptr %12, i32 0, i32 4
  store i32 1, ptr %13, align 4
  %14 = load i32, ptr %3, align 4
  ret i32 %14
}