; Function Attrs: nounwind uwtable
define i32 @cli_bytecode_init(ptr noundef %0) local_unnamed_addr #0 {
  tail call void @llvm.memset.p0.i64(ptr noundef nonnull align 8 dereferenceable(520) %0, i8 0, i64 520, i1 false)
  %2 = tail call i32 @cli_bytecode_init_jit(ptr noundef %0, i32 noundef 0) #25
  %3 = getelementptr inbounds i8, ptr %0, i64 16
  %4 = load ptr, ptr %3, align 8
  %.not = icmp eq ptr %4, null
  %5 = select i1 %.not, ptr @.str.61, ptr @.str.60
  tail call void (ptr, ...) @cli_dbgmsg(ptr noundef nonnull @.str.59, ptr noundef nonnull %5) #25
  %6 = getelementptr inbounds i8, ptr %0, i64 516
  store i32 1, ptr %6, align 4
  ret i32 %2
}